; Function Attrs: nounwind uwtable
define zeroext range(i8 0, 2) i8 @l_Array_contains___at___private_Lean_Meta_RecursorInfo_0__Lean_Meta_getMajorPosDepElim___spec__4(ptr noundef readonly captures(none) %0, ptr noundef %1) local_unnamed_addr #0 {
lean_nat_lt.exit:
  %2 = getelementptr i8, ptr %0, i64 8
  %.val = load i64, ptr %2, align 8, !tbaa !16
  %.mask = and i64 %.val, 9223372036854775807
  %.not = icmp eq i64 %.mask, 0
  br i1 %.not, label %lean_dec.exit13, label %.lr.ph.i

.lr.ph.i:                                         ; preds = %lean_nat_lt.exit
  %3 = getelementptr inbounds nuw i8, ptr %0, i64 24
  br label %6

4:                                                ; preds = %lean_dec.exit.i
  %5 = add nuw nsw i64 %.01528.i, 1
  %.not.i17 = icmp eq i64 %5, %.mask
  br i1 %.not.i17, label %lean_dec.exit13, label %6

6:                                                ; preds = %4, %.lr.ph.i
  %.01528.i = phi i64 [ 0, %.lr.ph.i ], [ %5, %4 ]
  %7 = getelementptr inbounds nuw [0 x ptr], ptr %3, i64 0, i64 %.01528.i
  %8 = load ptr, ptr %7, align 8, !tbaa !4
  %9 = ptrtoint ptr %8 to i64
  %10 = and i64 %9, 1
  %.not.i20.i = icmp eq i64 %10, 0
  br i1 %.not.i20.i, label %11, label %lean_array_uget.exit.i

11:                                               ; preds = %6
  %.val.i.i.i = load i32, ptr %8, align 4, !tbaa !8
  %12 = icmp sgt i32 %.val.i.i.i, 0
  br i1 %12, label %13, label %15, !prof !11

13:                                               ; preds = %11
  %14 = add nuw i32 %.val.i.i.i, 1
  store i32 %14, ptr %8, align 4, !tbaa !8
  br label %18

15:                                               ; preds = %11
  %.not.i.i.i = icmp eq i32 %.val.i.i.i, 0
  br i1 %.not.i.i.i, label %18, label %16

16:                                               ; preds = %15
  tail call void @lean_inc_ref_cold(ptr noundef nonnull %8) #6
  br label %18

lean_array_uget.exit.i:                           ; preds = %6
  %17 = tail call zeroext i8 @lean_expr_eqv(ptr noundef %1, ptr noundef %8) #6
  br label %lean_dec.exit.i

18:                                               ; preds = %16, %15, %13
  %19 = tail call zeroext i8 @lean_expr_eqv(ptr noundef %1, ptr noundef nonnull %8) #6
  %20 = load i32, ptr %8, align 4, !tbaa !8
  %21 = icmp sgt i32 %20, 1
  br i1 %21, label %22, label %24, !prof !11

22:                                               ; preds = %18
  %23 = add nsw i32 %20, -1
  store i32 %23, ptr %8, align 4, !tbaa !8
  br label %lean_dec.exit.i

24:                                               ; preds = %18
  %.not.i.i = icmp eq i32 %20, 0
  br i1 %.not.i.i, label %lean_dec.exit.i, label %25

25:                                               ; preds = %24
  tail call void @lean_dec_ref_cold(ptr noundef nonnull %8) #6
  br label %lean_dec.exit.i

lean_dec.exit.i:                                  ; preds = %25, %24, %22, %lean_array_uget.exit.i
  %26 = phi i8 [ %17, %lean_array_uget.exit.i ], [ %19, %22 ], [ %19, %24 ], [ %19, %25 ]
  %27 = icmp eq i8 %26, 0
  br i1 %27, label %4, label %lean_dec.exit13

lean_dec.exit13:                                  ; preds = %lean_dec.exit.i, %4, %lean_nat_lt.exit
  %.0 = phi i8 [ 0, %lean_nat_lt.exit ], [ 0, %4 ], [ 1, %lean_dec.exit.i ]
  ret i8 %.0
}